; Function Attrs: mustprogress uwtable
define hidden void @_ZN18OpenImageIO_v2_6_09TGAOutputC2Ev(ptr noundef nonnull align 8 dereferenceable(296) %this) unnamed_addr #5 align 2 personality ptr @__gxx_personality_v0 {
entry:
  tail call void @_ZN18OpenImageIO_v2_6_011ImageOutputC2Ev(ptr noundef nonnull align 8 dereferenceable(184) %this)
  store ptr getelementptr inbounds ({ [22 x ptr] }, ptr @_ZTVN18OpenImageIO_v2_6_09TGAOutputE, i64 0, i32 0, i64 2), ptr %this, align 8
  %m_filename = getelementptr inbounds i8, ptr %this, i64 184
  tail call void @_ZNSt7__cxx1112basic_stringIcSt11char_traitsIcESaIcEEC1Ev(ptr noundef nonnull align 8 dereferenceable(32) %m_filename) #20
  %m_scratch = getelementptr inbounds i8, ptr %this, i64 224
  tail call void @llvm.memset.p0.i64(ptr noundef nonnull align 8 dereferenceable(24) %m_scratch, i8 0, i64 24, i1 false)
  %m_tilebuffer = getelementptr inbounds i8, ptr %this, i64 256
  tail call void @llvm.memset.p0.i64(ptr noundef nonnull align 8 dereferenceable(24) %m_tilebuffer, i8 0, i64 24, i1 false)
  %m_thumb = getelementptr inbounds i8, ptr %this, i64 280
  invoke void @_ZN18OpenImageIO_v2_6_08ImageBufC1Ev(ptr noundef nonnull align 8 dereferenceable(16) %m_thumb)
          to label %invoke.cont unwind label %lpad

invoke.cont:                                      ; preds = %entry
  %m_convert_alpha.i = getelementptr inbounds i8, ptr %this, i64 217
  store i8 1, ptr %m_convert_alpha.i, align 1
  %m_gamma.i = getelementptr inbounds i8, ptr %this, i64 220
  store float 1.000000e+00, ptr %m_gamma.i, align 4
  invoke void @_ZN18OpenImageIO_v2_6_08ImageBuf5clearEv(ptr noundef nonnull align 8 dereferenceable(16) %m_thumb)
          to label %.noexc unwind label %lpad2

.noexc:                                           ; preds = %invoke.cont
  invoke void @_ZN18OpenImageIO_v2_6_011ImageOutput13ioproxy_clearEv(ptr noundef nonnull align 8 dereferenceable(184) %this)
          to label %invoke.cont3 unwind label %lpad2

invoke.cont3:                                     ; preds = %.noexc
  ret void

lpad:                                             ; preds = %entry
  %0 = landingpad { ptr, i32 }
          cleanup
  br label %ehcleanup

lpad2:                                            ; preds = %.noexc, %invoke.cont
  %1 = landingpad { ptr, i32 }
          cleanup
  tail call void @_ZN18OpenImageIO_v2_6_08ImageBufD1Ev(ptr noundef nonnull align 8 dereferenceable(16) %m_thumb) #20
  br label %ehcleanup

ehcleanup:                                        ; preds = %lpad2, %lpad
  %.pn = phi { ptr, i32 } [ %1, %lpad2 ], [ %0, %lpad ]
  %2 = load ptr, ptr %m_tilebuffer, align 8
  %tobool.not.i.i.i = icmp eq ptr %2, null
  br i1 %tobool.not.i.i.i, label %_ZNSt6vectorIhSaIhEED2Ev.exit, label %if.then.i.i.i

if.then.i.i.i:                                    ; preds = %ehcleanup
  tail call void @_ZdlPv(ptr noundef nonnull %2) #21
  br label %_ZNSt6vectorIhSaIhEED2Ev.exit

_ZNSt6vectorIhSaIhEED2Ev.exit:                    ; preds = %ehcleanup, %if.then.i.i.i
  %3 = load ptr, ptr %m_scratch, align 8
  %tobool.not.i.i.i3 = icmp eq ptr %3, null
  br i1 %tobool.not.i.i.i3, label %_ZNSt6vectorIhSaIhEED2Ev.exit5, label %if.then.i.i.i4

if.then.i.i.i4:                                   ; preds = %_ZNSt6vectorIhSaIhEED2Ev.exit
  tail call void @_ZdlPv(ptr noundef nonnull %3) #21
  br label %_ZNSt6vectorIhSaIhEED2Ev.exit5

_ZNSt6vectorIhSaIhEED2Ev.exit5:                   ; preds = %_ZNSt6vectorIhSaIhEED2Ev.exit, %if.then.i.i.i4
  tail call void @_ZNSt7__cxx1112basic_stringIcSt11char_traitsIcESaIcEED1Ev(ptr noundef nonnull align 8 dereferenceable(32) %m_filename) #20
  tail call void @_ZN18OpenImageIO_v2_6_011ImageOutputD2Ev(ptr noundef nonnull align 8 dereferenceable(184) %this) #20
  resume { ptr, i32 } %.pn
}